target datalayout = "e-m:e-p270:32:32-p271:32:32-p272:64:64-i64:64-i128:128-f80:128-n8:16:32:64-S128"
target triple = "x86_64-pc-linux-gnu"

%struct.CRYPTO_REF_COUNT = type { i32 }
%struct.evp_kem_st = type { i32, ptr, ptr, ptr, %struct.CRYPTO_REF_COUNT, ptr, ptr, ptr, ptr, ptr, ptr, ptr, ptr, ptr, ptr, ptr, ptr, ptr }

; Function Attrs: nounwind uwtable
define i32 @EVP_KEM_is_a(ptr noundef %0, ptr noundef %1) #0 {
  %3 = alloca ptr, align 8
  %4 = alloca ptr, align 8
  store ptr %0, ptr %3, align 8, !tbaa !14
  store ptr %1, ptr %4, align 8, !tbaa !21
  %5 = load ptr, ptr %3, align 8, !tbaa !14
  %6 = icmp ne ptr %5, null
  br i1 %6, label %7, label %17

7:                                                ; preds = %2
  %8 = load ptr, ptr %3, align 8, !tbaa !14
  %9 = getelementptr inbounds nuw %struct.evp_kem_st, ptr %8, i32 0, i32 3
  %10 = load ptr, ptr %9, align 8, !tbaa !52
  %11 = load ptr, ptr %3, align 8, !tbaa !14
  %12 = getelementptr inbounds nuw %struct.evp_kem_st, ptr %11, i32 0, i32 0
  %13 = load i32, ptr %12, align 8, !tbaa !71
  %14 = load ptr, ptr %4, align 8, !tbaa !21
  %15 = call i32 @evp_is_a(ptr noundef %10, i32 noundef %13, ptr noundef null, ptr noundef %14)
  %16 = icmp ne i32 %15, 0
  br label %17

17:                                               ; preds = %7, %2
  %18 = phi i1 [ false, %2 ], [ %16, %7 ]
  %19 = zext i1 %18 to i32
  ret i32 %19
}