; Function Attrs: nounwind uwtable
define range(i32 0, 2) i32 @EVP_KEM_is_a(ptr noundef readonly captures(address_is_null) %0, ptr noundef %1) local_unnamed_addr #0 {
  %.not = icmp eq ptr %0, null
  br i1 %.not, label %10, label %3

3:                                                ; preds = %2
  %4 = getelementptr inbounds nuw i8, ptr %0, i64 24
  %5 = load ptr, ptr %4, align 8, !tbaa !37
  %6 = load i32, ptr %0, align 8, !tbaa !54
  %7 = tail call i32 @evp_is_a(ptr noundef %5, i32 noundef %6, ptr noundef null, ptr noundef %1) #5
  %8 = icmp ne i32 %7, 0
  %9 = zext i1 %8 to i32
  br label %10

10:                                               ; preds = %3, %2
  %11 = phi i32 [ 0, %2 ], [ %9, %3 ]
  ret i32 %11
}